target datalayout = "e-m:e-p270:32:32-p271:32:32-p272:64:64-i64:64-i128:128-f80:128-n8:16:32:64-S128"
target triple = "x86_64-pc-linux-gnu"

%struct.ident_t = type { i32, i32, i32, i32, ptr }
%"struct.faiss::(anonymous namespace)::ArgsortComparator" = type { ptr }
%"struct.std::_Vector_base" = type { %"struct.std::_Vector_base<faiss::(anonymous namespace)::SegmentS, std::allocator<faiss::(anonymous namespace)::SegmentS>>::_Vector_impl" }
%"struct.std::_Vector_base<faiss::(anonymous namespace)::SegmentS, std::allocator<faiss::(anonymous namespace)::SegmentS>>::_Vector_impl" = type { %"struct.std::_Vector_base<faiss::(anonymous namespace)::SegmentS, std::allocator<faiss::(anonymous namespace)::SegmentS>>::_Vector_impl_data" }
%"struct.std::_Vector_base<faiss::(anonymous namespace)::SegmentS, std::allocator<faiss::(anonymous namespace)::SegmentS>>::_Vector_impl_data" = type { ptr, ptr, ptr }
%"struct.faiss::(anonymous namespace)::SegmentS" = type { i64, i64 }

@2 = private unnamed_addr constant %struct.ident_t { i32 0, i32 514, i32 0, i32 22, ptr @0 }, align 8

; Function Attrs: noreturn nounwind uwtable
define linkonce_odr hidden void @__clang_call_terminate(ptr noundef %0) #8 comdat {
  %2 = call ptr @__cxa_begin_catch(ptr %0) #7
  call void @_ZSt9terminatev() #17
  unreachable
}

; Function Attrs: mustprogress nounwind uwtable
define internal noundef nonnull align 8 dereferenceable(16) ptr @_ZNSt6vectorIN5faiss12_GLOBAL__N_18SegmentSESaIS2_EEixEm(ptr noundef nonnull align 8 dereferenceable(24) %0, i64 noundef %1) #2 align 2 {
  %3 = alloca ptr, align 8
  %4 = alloca i64, align 8
  store ptr %0, ptr %3, align 8
  store i64 %1, ptr %4, align 8
  %5 = load ptr, ptr %3, align 8
  %6 = getelementptr inbounds %"struct.std::_Vector_base", ptr %5, i32 0, i32 0
  %7 = getelementptr inbounds %"struct.std::_Vector_base<faiss::(anonymous namespace)::SegmentS, std::allocator<faiss::(anonymous namespace)::SegmentS>>::_Vector_impl_data", ptr %6, i32 0, i32 0
  %8 = load ptr, ptr %7, align 8
  %9 = load i64, ptr %4, align 8
  %10 = getelementptr inbounds %"struct.faiss::(anonymous namespace)::SegmentS", ptr %8, i64 %9
  ret ptr %10
}

; Function Attrs: norecurse nounwind uwtable
define internal void @_ZN5faiss21fvec_argsort_parallelEmPKfPm.omp_outlined.1(ptr noalias noundef %0, ptr noalias noundef %1, ptr noundef nonnull align 4 dereferenceable(4) %2, ptr noundef nonnull align 8 dereferenceable(8) %3, ptr noundef nonnull align 8 dereferenceable(8) %4, ptr noundef nonnull align 8 dereferenceable(8) %5, ptr noundef nonnull align 8 dereferenceable(24) %6) #6 personality ptr @__gxx_personality_v0 {
  %8 = alloca ptr, align 8
  %9 = alloca ptr, align 8
  %10 = alloca ptr, align 8
  %11 = alloca ptr, align 8
  %12 = alloca ptr, align 8
  %13 = alloca ptr, align 8
  %14 = alloca ptr, align 8
  %15 = alloca i32, align 4
  %16 = alloca i32, align 4
  %17 = alloca i32, align 4
  %18 = alloca i32, align 4
  %19 = alloca i32, align 4
  %20 = alloca i32, align 4
  %21 = alloca i32, align 4
  %22 = alloca i32, align 4
  %23 = alloca i32, align 4
  %24 = alloca i64, align 8
  %25 = alloca i64, align 8
  %26 = alloca %"struct.faiss::(anonymous namespace)::SegmentS", align 8
  %27 = alloca %"struct.faiss::(anonymous namespace)::ArgsortComparator", align 8
  store ptr %0, ptr %8, align 8
  store ptr %1, ptr %9, align 8
  store ptr %2, ptr %10, align 8
  store ptr %3, ptr %11, align 8
  store ptr %4, ptr %12, align 8
  store ptr %5, ptr %13, align 8
  store ptr %6, ptr %14, align 8
  %28 = load ptr, ptr %10, align 8
  %29 = load ptr, ptr %11, align 8
  %30 = load ptr, ptr %12, align 8
  %31 = load ptr, ptr %13, align 8
  %32 = load ptr, ptr %14, align 8
  %33 = load i32, ptr %28, align 4
  store i32 %33, ptr %16, align 4
  %34 = load i32, ptr %16, align 4
  %35 = sub nsw i32 %34, 0
  %36 = sdiv i32 %35, 1
  %37 = sub nsw i32 %36, 1
  store i32 %37, ptr %17, align 4
  store i32 0, ptr %18, align 4
  %38 = load i32, ptr %16, align 4
  %39 = icmp slt i32 0, %38
  br i1 %39, label %40, label %103

40:                                               ; preds = %7
  store i32 0, ptr %19, align 4
  %41 = load i32, ptr %17, align 4
  store i32 %41, ptr %20, align 4
  store i32 1, ptr %21, align 4
  store i32 0, ptr %22, align 4
  %42 = load ptr, ptr %8, align 8
  %43 = load i32, ptr %42, align 4
  call void @__kmpc_for_static_init_4(ptr @2, i32 %43, i32 34, ptr %22, ptr %19, ptr %20, ptr %21, i32 1, i32 1)
  %44 = load i32, ptr %20, align 4
  %45 = load i32, ptr %17, align 4
  %46 = icmp sgt i32 %44, %45
  br i1 %46, label %47, label %49

47:                                               ; preds = %40
  %48 = load i32, ptr %17, align 4
  br label %51

49:                                               ; preds = %40
  %50 = load i32, ptr %20, align 4
  br label %51

51:                                               ; preds = %49, %47
  %52 = phi i32 [ %48, %47 ], [ %50, %49 ]
  store i32 %52, ptr %20, align 4
  %53 = load i32, ptr %19, align 4
  store i32 %53, ptr %15, align 4
  br label %54

54:                                               ; preds = %96, %51
  %55 = load i32, ptr %15, align 4
  %56 = load i32, ptr %20, align 4
  %57 = icmp sle i32 %55, %56
  br i1 %57, label %58, label %99

58:                                               ; preds = %54
  %59 = load i32, ptr %15, align 4
  %60 = mul nsw i32 %59, 1
  %61 = add nsw i32 0, %60
  store i32 %61, ptr %23, align 4
  %62 = load i32, ptr %23, align 4
  %63 = sext i32 %62 to i64
  %64 = load i64, ptr %29, align 8
  %65 = mul i64 %63, %64
  %66 = load i32, ptr %28, align 4
  %67 = sext i32 %66 to i64
  %68 = udiv i64 %65, %67
  store i64 %68, ptr %24, align 8
  %69 = load i32, ptr %23, align 4
  %70 = add nsw i32 %69, 1
  %71 = sext i32 %70 to i64
  %72 = load i64, ptr %29, align 8
  %73 = mul i64 %71, %72
  %74 = load i32, ptr %28, align 4
  %75 = sext i32 %74 to i64
  %76 = udiv i64 %73, %75
  store i64 %76, ptr %25, align 8
  %77 = getelementptr inbounds %"struct.faiss::(anonymous namespace)::SegmentS", ptr %26, i32 0, i32 0
  %78 = load i64, ptr %24, align 8
  store i64 %78, ptr %77, align 8
  %79 = getelementptr inbounds %"struct.faiss::(anonymous namespace)::SegmentS", ptr %26, i32 0, i32 1
  %80 = load i64, ptr %25, align 8
  store i64 %80, ptr %79, align 8
  %81 = load ptr, ptr %30, align 8
  %82 = getelementptr inbounds %"struct.faiss::(anonymous namespace)::SegmentS", ptr %26, i32 0, i32 0
  %83 = load i64, ptr %82, align 8
  %84 = getelementptr inbounds i64, ptr %81, i64 %83
  %85 = load ptr, ptr %30, align 8
  %86 = getelementptr inbounds %"struct.faiss::(anonymous namespace)::SegmentS", ptr %26, i32 0, i32 1
  %87 = load i64, ptr %86, align 8
  %88 = getelementptr inbounds i64, ptr %85, i64 %87
  call void @llvm.memcpy.p0.p0.i64(ptr align 8 %27, ptr align 8 %31, i64 8, i1 false)
  %89 = getelementptr inbounds %"struct.faiss::(anonymous namespace)::ArgsortComparator", ptr %27, i32 0, i32 0
  %90 = load ptr, ptr %89, align 8
  invoke void @_ZSt4sortIPmN5faiss12_GLOBAL__N_117ArgsortComparatorEEvT_S4_T0_(ptr noundef %84, ptr noundef %88, ptr %90)
          to label %91 unwind label %104

91:                                               ; preds = %58
  %92 = load i32, ptr %23, align 4
  %93 = sext i32 %92 to i64
  %94 = call noundef nonnull align 8 dereferenceable(16) ptr @_ZNSt6vectorIN5faiss12_GLOBAL__N_18SegmentSESaIS2_EEixEm(ptr noundef nonnull align 8 dereferenceable(24) %32, i64 noundef %93) #7
  call void @llvm.memcpy.p0.p0.i64(ptr align 8 %94, ptr align 8 %26, i64 16, i1 false)
  br label %95

95:                                               ; preds = %91
  br label %96

96:                                               ; preds = %95
  %97 = load i32, ptr %15, align 4
  %98 = add nsw i32 %97, 1
  store i32 %98, ptr %15, align 4
  br label %54

99:                                               ; preds = %54
  br label %100

100:                                              ; preds = %99
  %101 = load ptr, ptr %8, align 8
  %102 = load i32, ptr %101, align 4
  call void @__kmpc_for_static_fini(ptr @2, i32 %102)
  br label %103

103:                                              ; preds = %100, %7
  ret void

104:                                              ; preds = %58
  %105 = landingpad { ptr, i32 }
          catch ptr null
  %106 = extractvalue { ptr, i32 } %105, 0
  call void @__clang_call_terminate(ptr %106) #17
  unreachable
}