; Function Attrs: norecurse nounwind uwtable
define internal void @_ZN5faiss21fvec_argsort_parallelEmPKfPm.omp_outlined.1(ptr noalias nocapture noundef readonly %0, ptr noalias nocapture readnone %1, ptr nocapture noundef nonnull readonly align 4 dereferenceable(4) %2, ptr nocapture noundef nonnull readonly align 8 dereferenceable(8) %3, ptr nocapture noundef nonnull readonly align 8 dereferenceable(8) %4, ptr nocapture noundef nonnull readonly align 8 dereferenceable(8) %5, ptr nocapture noundef nonnull readonly align 8 dereferenceable(24) %6) #8 personality ptr @__gxx_personality_v0 {
  %8 = alloca i32, align 4
  %9 = alloca i32, align 4
  %10 = alloca i32, align 4
  %11 = alloca i32, align 4
  %12 = load i32, ptr %2, align 4
  %13 = icmp sgt i32 %12, 0
  br i1 %13, label %14, label %34

14:                                               ; preds = %7
  %15 = add nsw i32 %12, -1
  store i32 0, ptr %8, align 4
  store i32 %15, ptr %9, align 4
  store i32 1, ptr %10, align 4
  store i32 0, ptr %11, align 4
  %16 = load i32, ptr %0, align 4
  call void @__kmpc_for_static_init_4(ptr nonnull @2, i32 %16, i32 34, ptr nonnull %11, ptr nonnull %8, ptr nonnull %9, ptr nonnull %10, i32 1, i32 1)
  %17 = load i32, ptr %9, align 4
  %18 = call i32 @llvm.smin.i32(i32 %17, i32 %15)
  store i32 %18, ptr %9, align 4
  %19 = load i32, ptr %8, align 4
  %.not20 = icmp sgt i32 %19, %18
  br i1 %.not20, label %._crit_edge, label %.lr.ph.preheader

.lr.ph.preheader:                                 ; preds = %14
  %20 = sext i32 %19 to i64
  br label %.lr.ph

.lr.ph:                                           ; preds = %.lr.ph.preheader, %.lr.ph
  %indvars.iv = phi i64 [ %20, %.lr.ph.preheader ], [ %indvars.iv.next, %.lr.ph ]
  %21 = load i64, ptr %3, align 8
  %22 = mul i64 %21, %indvars.iv
  %23 = load i32, ptr %2, align 4
  %24 = sext i32 %23 to i64
  %25 = udiv i64 %22, %24
  %indvars.iv.next = add nsw i64 %indvars.iv, 1
  %26 = mul i64 %21, %indvars.iv.next
  %27 = udiv i64 %26, %24
  %28 = load ptr, ptr %4, align 8
  %29 = getelementptr inbounds i64, ptr %28, i64 %25
  %30 = getelementptr inbounds i64, ptr %28, i64 %27
  %.sroa.0.0.copyload = load ptr, ptr %5, align 8
  call fastcc void @_ZSt4sortIPmN5faiss12_GLOBAL__N_117ArgsortComparatorEEvT_S4_T0_(ptr noundef %29, ptr noundef %30, ptr %.sroa.0.0.copyload)
  %.val = load ptr, ptr %6, align 8
  %31 = getelementptr inbounds %"struct.faiss::(anonymous namespace)::SegmentS", ptr %.val, i64 %indvars.iv
  store i64 %25, ptr %31, align 8
  %.sroa.3.0..sroa_idx = getelementptr inbounds i8, ptr %31, i64 8
  store i64 %27, ptr %.sroa.3.0..sroa_idx, align 8
  %32 = load i32, ptr %9, align 4
  %33 = sext i32 %32 to i64
  %.not.not = icmp slt i64 %indvars.iv, %33
  br i1 %.not.not, label %.lr.ph, label %._crit_edge

._crit_edge:                                      ; preds = %.lr.ph, %14
  call void @__kmpc_for_static_fini(ptr nonnull @2, i32 %16)
  br label %34

34:                                               ; preds = %._crit_edge, %7
  ret void
}